; Function Attrs: mustprogress nofree norecurse nosync nounwind willreturn memory(argmem: readwrite) uwtable
define noundef zeroext i1 @_ZNK32pxrInternal_v0_24__pxrReserved__9GfFrustum15GetOrthographicEPdS1_S1_S1_S1_S1_(ptr nocapture noundef nonnull readonly align 8 dereferenceable(128) %0, ptr nocapture noundef writeonly %1, ptr nocapture noundef writeonly %2, ptr nocapture noundef writeonly %3, ptr nocapture noundef writeonly %4, ptr nocapture noundef writeonly %5, ptr nocapture noundef writeonly %6) local_unnamed_addr #2 align 2 {
  %8 = getelementptr inbounds nuw i8, ptr %0, i64 112
  %9 = load i32, ptr %8, align 8
  %.not = icmp eq i32 %9, 0
  br i1 %.not, label %10, label %23

10:                                               ; preds = %7
  %11 = getelementptr inbounds nuw i8, ptr %0, i64 56
  %12 = load double, ptr %11, align 8
  store double %12, ptr %1, align 8
  %13 = getelementptr inbounds i8, ptr %0, i64 72
  %14 = load double, ptr %13, align 8
  store double %14, ptr %2, align 8
  %15 = getelementptr inbounds i8, ptr %0, i64 64
  %16 = load double, ptr %15, align 8
  store double %16, ptr %3, align 8
  %17 = getelementptr inbounds i8, ptr %0, i64 80
  %18 = load double, ptr %17, align 8
  store double %18, ptr %4, align 8
  %19 = getelementptr inbounds nuw i8, ptr %0, i64 88
  %20 = load double, ptr %19, align 8
  store double %20, ptr %5, align 8
  %21 = getelementptr inbounds i8, ptr %0, i64 96
  %22 = load double, ptr %21, align 8
  store double %22, ptr %6, align 8
  br label %23

23:                                               ; preds = %7, %10
  ret i1 %.not
}